(dp1
S'files'
p2
(dp3
S'uber_settings'
p4
(dp5
S'index'
p6
(dp7
S'html_filename'
p8
S'uber_settings.html'
p9
sS'name'
p10
S'uber/settings'
p11
sS'nums'
p12
ccopy_reg
_reconstructor
p13
(ccoverage.results
Numbers
p14
c__builtin__
object
p15
NtRp16
(dp17
S'n_files'
p18
I1
sS'n_branches'
p19
I0
sS'n_statements'
p20
I18
sS'n_excluded'
p21
I0
sS'n_partial_branches'
p22
I0
sS'n_missing'
p23
I0
sS'n_missing_branches'
p24
I0
sbssS'hash'
p25
S"\x91\xd47\xb6\x05\x0c\x85\xd3C\xf8.\xb0'j\x97\x8d"
p26
ssS'manage'
p27
(dp28
g6
(dp29
g8
S'manage.html'
p30
sg10
g27
sg12
g13
(g14
g15
NtRp31
(dp32
g18
I1
sg19
I0
sg20
I6
sg21
I0
sg22
I0
sg23
I0
sg24
I0
sbssg25
S'\x12\xc8\x19\x96\x19h\x9cK\xe9\x91\x9fy"\xa9\x80\x19'
p33
ssS'movies_tests_test_views'
p34
(dp35
S'index'
p36
(dp37
S'html_filename'
p38
S'movies_tests_test_views.html'
p39
sS'name'
p40
S'movies/tests/test_views'
p41
sS'nums'
p42
g13
(g14
g15
NtRp43
(dp44
g18
I1
sg19
I0
sg20
I72
sg21
I0
sg22
I0
sg23
I0
sg24
I0
sbssS'hash'
p45
S'`\x8f\x87{\xc4[\xf23\xaf%*\xac\xfb\xd4\xe4\xae'
p46
ssS'movies_utilities___init__'
p47
(dp48
g6
(dp49
g8
S'movies_utilities___init__.html'
p50
sg10
S'movies/utilities/__init__'
p51
sg12
g13
(g14
g15
NtRp52
(dp53
g18
I1
sg19
I0
sg20
I0
sg21
I0
sg22
I0
sg23
I0
sg24
I0
sbssg25
S'\xca\xf5\x9f\x7f\x88\xdfa\x831|T\x1d\xbc}\xa5v'
p54
ssS'movies_migrations_0001_initial'
p55
(dp56
g6
(dp57
g8
S'movies_migrations_0001_initial.html'
p58
sg10
S'movies/migrations/0001_initial'
p59
sg12
g13
(g14
g15
NtRp60
(dp61
g18
I1
sg19
I0
sg20
I6
sg21
I0
sg22
I0
sg23
I0
sg24
I0
sbssg25
S'f3\x13@cv\xa5:\xca\xd2l\x0f\x82W\x95\x05'
p62
ssS'uber_wsgi'
p63
(dp64
g6
(dp65
g8
S'uber_wsgi.html'
p66
sg10
S'uber/wsgi'
p67
sg12
g13
(g14
g15
NtRp68
(dp69
g18
I1
sg19
I0
sg20
I4
sg21
I0
sg22
I0
sg23
I4
sg24
I0
sbssg25
S'\x89\xdast\x83-8\xaaTt\x9a\xfc>\xe7qS'
p70
ssS'movies_models'
p71
(dp72
g6
(dp73
g8
S'movies_models.html'
p74
sg10
S'movies/models'
p75
sg12
g13
(g14
g15
NtRp76
(dp77
g18
I1
sg19
I0
sg20
I28
sg21
I0
sg22
I0
sg23
I0
sg24
I0
sbssg25
S'_\xdc\xbbW\x08\xf5\x98\xbe\x02r^m\xdb\x80[\xe1'
p78
ssS'movies_utilities_importer'
p79
(dp80
g6
(dp81
S'html_filename'
p82
S'movies_utilities_importer.html'
p83
sS'name'
p84
S'movies/utilities/importer'
p85
sS'nums'
p86
g13
(g14
g15
NtRp87
(dp88
g18
I1
sg19
I0
sg20
I63
sg21
I0
sg22
I0
sg23
I6
sg24
I0
sbssg25
S']:\xac\xf8>\xef\xa8t\xb3eA\xcc\x89\xfea\x0b'
p89
ssS'movies_serializers'
p90
(dp91
g6
(dp92
g38
S'movies_serializers.html'
p93
sg40
S'movies/serializers'
p94
sg42
g13
(g14
g15
NtRp95
(dp96
g18
I1
sg19
I0
sg20
I39
sg21
I0
sg22
I0
sg23
I0
sg24
I0
sbssg25
S'VO\xad\x14A\x86\x91\x12\xef\x06\x1dJb\xa8\xc1>'
p97
ssS'movies_management_commands___init__'
p98
(dp99
g6
(dp100
g8
S'movies_management_commands___init__.html'
p101
sg10
S'movies/management/commands/__init__'
p102
sg12
g13
(g14
g15
NtRp103
(dp104
g18
I1
sg19
I0
sg20
I0
sg21
I0
sg22
I0
sg23
I0
sg24
I0
sbssg25
S'\xe5P\x11)^\xf4>1D.\x0e\x0b\xa1\xf8[+'
p105
ssS'movies_admin'
p106
(dp107
g6
(dp108
g8
S'movies_admin.html'
p109
sg10
S'movies/admin'
p110
sg12
g13
(g14
g15
NtRp111
(dp112
g18
I1
sg19
I0
sg20
I1
sg21
I0
sg22
I0
sg23
I0
sg24
I0
sbssg25
S'\xd4\xe9\x8c\x82\x9c\xa2eU\x87h\x8b\xbe!-\xe2\xdf'
p113
ssS'movies___init__'
p114
(dp115
g6
(dp116
g8
S'movies___init__.html'
p117
sg10
S'movies/__init__'
p118
sg12
g13
(g14
g15
NtRp119
(dp120
g18
I1
sg19
I0
sg20
I0
sg21
I0
sg22
I0
sg23
I0
sg24
I0
sbssg25
S'\xca\xf5\x9f\x7f\x88\xdfa\x831|T\x1d\xbc}\xa5v'
p121
ssS'movies_views'
p122
(dp123
g6
(dp124
g38
S'movies_views.html'
p125
sg40
S'movies/views'
p126
sg42
g13
(g14
g15
NtRp127
(dp128
g18
I1
sg19
I0
sg20
I25
sg21
I0
sg22
I0
sg23
I0
sg24
I0
sbssg25
S'\x84\xb0\x06\xeb\xf3\x96\xc0#\xe3Jr\xa7T\xadsZ'
p129
ssS'movies_utilities_geocode'
p130
(dp131
g6
(dp132
g8
S'movies_utilities_geocode.html'
p133
sg10
S'movies/utilities/geocode'
p134
sg12
g13
(g14
g15
NtRp135
(dp136
g18
I1
sg19
I0
sg20
I21
sg21
I0
sg22
I0
sg23
I2
sg24
I0
sbssg25
S'a\xcb\x14P\xbf\xf8\xcd\rLn\xd0%\xec^\xaeT'
p137
ssS'uber___init__'
p138
(dp139
g6
(dp140
g8
S'uber___init__.html'
p141
sg10
S'uber/__init__'
p142
sg12
g13
(g14
g15
NtRp143
(dp144
g18
I1
sg19
I0
sg20
I0
sg21
I0
sg22
I0
sg23
I0
sg24
I0
sbssg25
S'\xca\xf5\x9f\x7f\x88\xdfa\x831|T\x1d\xbc}\xa5v'
p145
ssS'movies_tests_test_importer'
p146
(dp147
g6
(dp148
g8
S'movies_tests_test_importer.html'
p149
sg10
S'movies/tests/test_importer'
p150
sg12
g13
(g14
g15
NtRp151
(dp152
g18
I1
sg19
I0
sg20
I60
sg21
I0
sg22
I0
sg23
I0
sg24
I0
sbssg25
S'DGU\x9bQit)\x13\xcf\xb6#\xba\xfc\r\xb7'
p153
ssS'movies_tests___init__'
p154
(dp155
g6
(dp156
g8
S'movies_tests___init__.html'
p157
sg10
S'movies/tests/__init__'
p158
sg12
g13
(g14
g15
NtRp159
(dp160
g18
I1
sg19
I0
sg20
I0
sg21
I0
sg22
I0
sg23
I0
sg24
I0
sbssg25
S'\xca\xf5\x9f\x7f\x88\xdfa\x831|T\x1d\xbc}\xa5v'
p161
ssS'movies_management___init__'
p162
(dp163
g6
(dp164
g8
S'movies_management___init__.html'
p165
sg10
S'movies/management/__init__'
p166
sg12
g13
(g14
g15
NtRp167
(dp168
g18
I1
sg19
I0
sg20
I0
sg21
I0
sg22
I0
sg23
I0
sg24
I0
sbssg25
S'\xca\xf5\x9f\x7f\x88\xdfa\x831|T\x1d\xbc}\xa5v'
p169
ssS'uber_urls'
p170
(dp171
g6
(dp172
g38
S'uber_urls.html'
p173
sg40
S'uber/urls'
p174
sg42
g13
(g14
g15
NtRp175
(dp176
g18
I1
sg19
I0
sg20
I7
sg21
I0
sg22
I0
sg23
I0
sg24
I0
sbssg25
S'0\xc2\x0f\x84\xd4~\x18Xl\xd2\x81\xd4L\xf0\x9dg'
p177
ssS'movies_migrations___init__'
p178
(dp179
g6
(dp180
g8
S'movies_migrations___init__.html'
p181
sg10
S'movies/migrations/__init__'
p182
sg12
g13
(g14
g15
NtRp183
(dp184
g18
I1
sg19
I0
sg20
I0
sg21
I0
sg22
I0
sg23
I0
sg24
I0
sbssg25
S'\xca\xf5\x9f\x7f\x88\xdfa\x831|T\x1d\xbc}\xa5v'
p185
ssS'movies_management_commands_sfd_import'
p186
(dp187
g6
(dp188
g38
S'movies_management_commands_sfd_import.html'
p189
sg40
S'movies/management/commands/sfd_import'
p190
sg42
g13
(g14
g15
NtRp191
(dp192
g18
I1
sg19
I0
sg20
I8
sg21
I0
sg22
I0
sg23
I8
sg24
I0
sbssg25
S'&\xad\x92\xa5\xddM>0\xdd6\x1b\xf4\x89Nq\xf2'
p193
ssS'movies_tests_test_geocode'
p194
(dp195
g6
(dp196
g8
S'movies_tests_test_geocode.html'
p197
sg10
S'movies/tests/test_geocode'
p198
sg12
g13
(g14
g15
NtRp199
(dp200
g18
I1
sg19
I0
sg20
I21
sg21
I0
sg22
I0
sg23
I0
sg24
I0
sbssg25
S'(\x1d\x16\xb1\x19n\xbf\xa7\xf2S\xde9\x8f\xf8y\xcf'
p201
sssS'version'
p202
S'3.7.1'
p203
sS'settings'
p204
S'\x98\xa8x\xfe"r\xb5K\x98\xb1N\\\x99\x9e\xf3\xe5'
p205
sS'format'
p206
I1
s.